target datalayout = "e-m:e-p270:32:32-p271:32:32-p272:64:64-i64:64-i128:128-f80:128-n8:16:32:64-S128"
target triple = "x86_64-pc-linux-gnu"

%"class.icu_77::RegexMatcher" = type { %"class.icu_77::UObject", ptr, ptr, ptr, ptr, ptr, i64, i32, i64, i64, i64, i64, i64, i64, i64, i64, i8, i8, i8, i64, i64, i64, i64, i8, i8, ptr, ptr, ptr, [8 x i64], i32, i32, i32, i32, ptr, ptr, ptr, ptr, i8, i8, i32, ptr, ptr }
%"class.icu_77::UObject" = type { ptr }

; Function Attrs: inlinehint mustprogress nounwind uwtable
define internal noundef signext i8 @_ZL9U_FAILURE10UErrorCode(i32 noundef %0) #2 {
  %2 = alloca i32, align 4
  store i32 %0, ptr %2, align 4, !tbaa !15
  %3 = load i32, ptr %2, align 4, !tbaa !15
  %4 = icmp sgt i32 %3, 0
  %5 = zext i1 %4 to i8
  ret i8 %5
}

; Function Attrs: mustprogress uwtable
define noundef i64 @_ZN6icu_7712RegexMatcher19followingGCBoundaryElR10UErrorCode(ptr noundef nonnull align 8 dereferenceable(336) %0, i64 noundef %1, ptr noundef nonnull align 4 dereferenceable(4) %2) #1 align 2 {
  %4 = alloca i64, align 8
  %5 = alloca ptr, align 8
  %6 = alloca i64, align 8
  %7 = alloca ptr, align 8
  %8 = alloca i64, align 8
  %9 = alloca i32, align 4
  store ptr %0, ptr %5, align 8, !tbaa !23
  store i64 %1, ptr %6, align 8, !tbaa !18
  store ptr %2, ptr %7, align 8, !tbaa !22
  %10 = load ptr, ptr %5, align 8
  call void @llvm.lifetime.start.p0(i64 8, ptr %8) #11
  %11 = load i64, ptr %6, align 8, !tbaa !18
  store i64 %11, ptr %8, align 8, !tbaa !18
  %12 = getelementptr inbounds nuw %"class.icu_77::RegexMatcher", ptr %10, i32 0, i32 41
  %13 = load ptr, ptr %12, align 8, !tbaa !86
  %14 = icmp eq ptr %13, null
  br i1 %14, label %15, label %35

15:                                               ; preds = %3
  %16 = call noundef nonnull align 8 dereferenceable(217) ptr @_ZN6icu_776Locale10getEnglishEv()
  %17 = load ptr, ptr %7, align 8, !tbaa !22
  %18 = call noundef ptr @_ZN6icu_7713BreakIterator23createCharacterInstanceERKNS_6LocaleER10UErrorCode(ptr noundef nonnull align 8 dereferenceable(217) %16, ptr noundef nonnull align 4 dereferenceable(4) %17)
  %19 = getelementptr inbounds nuw %"class.icu_77::RegexMatcher", ptr %10, i32 0, i32 41
  store ptr %18, ptr %19, align 8, !tbaa !86
  %20 = load ptr, ptr %7, align 8, !tbaa !22
  %21 = load i32, ptr %20, align 4, !tbaa !15
  %22 = call noundef signext i8 @_ZL9U_FAILURE10UErrorCode(i32 noundef %21)
  %23 = icmp ne i8 %22, 0
  br i1 %23, label %24, label %26

24:                                               ; preds = %15
  %25 = load i64, ptr %6, align 8, !tbaa !18
  store i64 %25, ptr %4, align 8
  store i32 1, ptr %9, align 4
  br label %51

26:                                               ; preds = %15
  %27 = getelementptr inbounds nuw %"class.icu_77::RegexMatcher", ptr %10, i32 0, i32 41
  %28 = load ptr, ptr %27, align 8, !tbaa !86
  %29 = getelementptr inbounds nuw %"class.icu_77::RegexMatcher", ptr %10, i32 0, i32 4
  %30 = load ptr, ptr %29, align 8, !tbaa !87
  %31 = load ptr, ptr %7, align 8, !tbaa !22
  %32 = load ptr, ptr %28, align 8, !tbaa !27
  %33 = getelementptr inbounds ptr, ptr %32, i64 8
  %34 = load ptr, ptr %33, align 8
  call void %34(ptr noundef nonnull align 8 dereferenceable(32) %28, ptr noundef %30, ptr noundef nonnull align 4 dereferenceable(4) %31)
  br label %35

35:                                               ; preds = %26, %3
  %36 = getelementptr inbounds nuw %"class.icu_77::RegexMatcher", ptr %10, i32 0, i32 41
  %37 = load ptr, ptr %36, align 8, !tbaa !86
  %38 = load i64, ptr %6, align 8, !tbaa !18
  %39 = trunc i64 %38 to i32
  %40 = load ptr, ptr %37, align 8, !tbaa !27
  %41 = getelementptr inbounds ptr, ptr %40, i64 15
  %42 = load ptr, ptr %41, align 8
  %43 = call noundef i32 %42(ptr noundef nonnull align 8 dereferenceable(32) %37, i32 noundef %39)
  %44 = sext i32 %43 to i64
  store i64 %44, ptr %8, align 8, !tbaa !18
  %45 = load i64, ptr %8, align 8, !tbaa !18
  %46 = icmp eq i64 %45, -1
  br i1 %46, label %47, label %49

47:                                               ; preds = %35
  %48 = load i64, ptr %6, align 8, !tbaa !18
  store i64 %48, ptr %8, align 8, !tbaa !18
  br label %49

49:                                               ; preds = %47, %35
  %50 = load i64, ptr %8, align 8, !tbaa !18
  store i64 %50, ptr %4, align 8
  store i32 1, ptr %9, align 4
  br label %51

51:                                               ; preds = %49, %24
  call void @llvm.lifetime.end.p0(i64 8, ptr %8) #11
  %52 = load i64, ptr %4, align 8
  ret i64 %52
}