; Function Attrs: mustprogress uwtable
define noundef i64 @_ZN6icu_7712RegexMatcher19followingGCBoundaryElR10UErrorCode(ptr noundef nonnull align 8 captures(none) dereferenceable(336) %0, i64 noundef %1, ptr noundef nonnull align 4 dereferenceable(4) %2) local_unnamed_addr #1 align 2 {
  %4 = getelementptr inbounds nuw i8, ptr %0, i64 328
  %5 = load ptr, ptr %4, align 8, !tbaa !80
  %6 = icmp eq ptr %5, null
  br i1 %6, label %7, label %18

7:                                                ; preds = %3
  %8 = tail call noundef nonnull align 8 dereferenceable(217) ptr @_ZN6icu_776Locale10getEnglishEv()
  %9 = tail call noundef ptr @_ZN6icu_7713BreakIterator23createCharacterInstanceERKNS_6LocaleER10UErrorCode(ptr noundef nonnull align 8 dereferenceable(217) %8, ptr noundef nonnull align 4 dereferenceable(4) %2)
  store ptr %9, ptr %4, align 8, !tbaa !80
  %10 = load i32, ptr %2, align 4, !tbaa !13
  %11 = icmp slt i32 %10, 1
  br i1 %11, label %12, label %27

12:                                               ; preds = %7
  %13 = getelementptr inbounds nuw i8, ptr %0, i64 32
  %14 = load ptr, ptr %13, align 8, !tbaa !77
  %15 = load ptr, ptr %9, align 8, !tbaa !15
  %16 = getelementptr inbounds nuw i8, ptr %15, i64 64
  %17 = load ptr, ptr %16, align 8
  tail call void %17(ptr noundef nonnull align 8 dereferenceable(32) %9, ptr noundef %14, ptr noundef nonnull align 4 dereferenceable(4) %2)
  %.pre = load ptr, ptr %4, align 8, !tbaa !80
  br label %18

18:                                               ; preds = %12, %3
  %19 = phi ptr [ %.pre, %12 ], [ %5, %3 ]
  %20 = trunc i64 %1 to i32
  %21 = load ptr, ptr %19, align 8, !tbaa !15
  %22 = getelementptr inbounds nuw i8, ptr %21, i64 120
  %23 = load ptr, ptr %22, align 8
  %24 = tail call noundef i32 %23(ptr noundef nonnull align 8 dereferenceable(32) %19, i32 noundef %20)
  %25 = sext i32 %24 to i64
  %26 = icmp eq i32 %24, -1
  %spec.select = select i1 %26, i64 %1, i64 %25
  br label %27

27:                                               ; preds = %7, %18
  %.010 = phi i64 [ %spec.select, %18 ], [ %1, %7 ]
  ret i64 %.010
}